; Function Attrs: mustprogress uwtable
define dso_local void @_ZNK9struct_pb8compiler14FieldGenerator12pb_type_nameB5cxx11Ev(ptr noalias sret(%"class.std::__cxx11::basic_string") align 8 %agg.result, ptr nocapture noundef nonnull readonly align 8 dereferenceable(64) %this) unnamed_addr #3 align 2 personality ptr @__gxx_personality_v0 {
entry:
  %__callable.i.i.i.i = alloca %class.anon, align 8
  %ref.tmp.i.i = alloca ptr, align 8
  %ref.tmp3.i.i = alloca ptr, align 8
  %ref.tmp = alloca %"class.std::allocator", align 1
  %d_ = getelementptr inbounds i8, ptr %this, i64 56
  %0 = load ptr, ptr %d_, align 8
  call void @llvm.lifetime.start.p0(i64 8, ptr nonnull %ref.tmp.i.i)
  call void @llvm.lifetime.start.p0(i64 8, ptr nonnull %ref.tmp3.i.i)
  %type_once_.i.i = getelementptr inbounds i8, ptr %0, i64 48
  %1 = load ptr, ptr %type_once_.i.i, align 8
  %tobool.not.i.i = icmp eq ptr %1, null
  br i1 %tobool.not.i.i, label %_ZNK6google8protobuf15FieldDescriptor9type_nameEv.exit, label %if.then.i.i

if.then.i.i:                                      ; preds = %entry
  store ptr @_ZN6google8protobuf15FieldDescriptor12TypeOnceInitEPKS1_, ptr %ref.tmp.i.i, align 8
  store ptr %0, ptr %ref.tmp3.i.i, align 8
  call void @llvm.lifetime.start.p0(i64 16, ptr nonnull %__callable.i.i.i.i)
  store ptr %ref.tmp.i.i, ptr %__callable.i.i.i.i, align 8
  %2 = getelementptr inbounds i8, ptr %__callable.i.i.i.i, i64 8
  store ptr %ref.tmp3.i.i, ptr %2, align 8
  %3 = call align 8 ptr @llvm.threadlocal.address.p0(ptr align 8 @_ZSt15__once_callable)
  store ptr %__callable.i.i.i.i, ptr %3, align 8
  %4 = call align 8 ptr @llvm.threadlocal.address.p0(ptr align 8 @_ZSt11__once_call)
  store ptr @_ZZNSt9once_flag18_Prepare_executionC1IZSt9call_onceIPFvPKN6google8protobuf15FieldDescriptorEEJS7_EEvRS_OT_DpOT0_EUlvE_EERSB_ENUlvE_8__invokeEv, ptr %4, align 8
  %call1.i2.i.i.i.i = invoke noundef i32 @pthread_once(ptr noundef nonnull %1, ptr noundef nonnull @__once_proxy)
          to label %invoke.cont.i.i.i.i unwind label %lpad.i.i.i.i

invoke.cont.i.i.i.i:                              ; preds = %if.then.i.i
  %tobool.not.i.i.i.i = icmp eq i32 %call1.i2.i.i.i.i, 0
  br i1 %tobool.not.i.i.i.i, label %_ZN6google8protobuf8internal9call_onceIJRSt9once_flagPFvPKNS0_15FieldDescriptorEES7_EEEvDpOT_.exit.i.i, label %if.then.i.i.i.i

if.then.i.i.i.i:                                  ; preds = %invoke.cont.i.i.i.i
  invoke void @_ZSt20__throw_system_errori(i32 noundef %call1.i2.i.i.i.i) #21
          to label %invoke.cont1.i.i.i.i unwind label %lpad.i.i.i.i

invoke.cont1.i.i.i.i:                             ; preds = %if.then.i.i.i.i
  unreachable

common.resume:                                    ; preds = %lpad, %lpad.i.i.i.i
  %common.resume.op = phi { ptr, i32 } [ %5, %lpad.i.i.i.i ], [ %8, %lpad ]
  resume { ptr, i32 } %common.resume.op

lpad.i.i.i.i:                                     ; preds = %if.then.i.i.i.i, %if.then.i.i
  %5 = landingpad { ptr, i32 }
          cleanup
  store ptr null, ptr %3, align 8
  store ptr null, ptr %4, align 8
  br label %common.resume

_ZN6google8protobuf8internal9call_onceIJRSt9once_flagPFvPKNS0_15FieldDescriptorEES7_EEEvDpOT_.exit.i.i: ; preds = %invoke.cont.i.i.i.i
  store ptr null, ptr %3, align 8
  store ptr null, ptr %4, align 8
  call void @llvm.lifetime.end.p0(i64 16, ptr nonnull %__callable.i.i.i.i)
  br label %_ZNK6google8protobuf15FieldDescriptor9type_nameEv.exit

_ZNK6google8protobuf15FieldDescriptor9type_nameEv.exit: ; preds = %entry, %_ZN6google8protobuf8internal9call_onceIJRSt9once_flagPFvPKNS0_15FieldDescriptorEES7_EEEvDpOT_.exit.i.i
  %type_.i.i = getelementptr inbounds i8, ptr %0, i64 56
  %6 = load i32, ptr %type_.i.i, align 8
  call void @llvm.lifetime.end.p0(i64 8, ptr nonnull %ref.tmp.i.i)
  call void @llvm.lifetime.end.p0(i64 8, ptr nonnull %ref.tmp3.i.i)
  %idxprom.i = zext i32 %6 to i64
  %arrayidx.i = getelementptr inbounds [19 x ptr], ptr @_ZN6google8protobuf15FieldDescriptor11kTypeToNameE, i64 0, i64 %idxprom.i
  %7 = load ptr, ptr %arrayidx.i, align 8
  call void @_ZNSaIcEC1Ev(ptr noundef nonnull align 1 dereferenceable(1) %ref.tmp) #22
  invoke void @_ZNSt7__cxx1112basic_stringIcSt11char_traitsIcESaIcEEC2IS3_EEPKcRKS3_(ptr noundef nonnull align 8 dereferenceable(32) %agg.result, ptr noundef %7, ptr noundef nonnull align 1 dereferenceable(1) %ref.tmp)
          to label %invoke.cont unwind label %lpad

invoke.cont:                                      ; preds = %_ZNK6google8protobuf15FieldDescriptor9type_nameEv.exit
  call void @_ZNSaIcED1Ev(ptr noundef nonnull align 1 dereferenceable(1) %ref.tmp) #22
  ret void

lpad:                                             ; preds = %_ZNK6google8protobuf15FieldDescriptor9type_nameEv.exit
  %8 = landingpad { ptr, i32 }
          cleanup
  call void @_ZNSaIcED1Ev(ptr noundef nonnull align 1 dereferenceable(1) %ref.tmp) #22
  br label %common.resume
}